
out/bootrom.elf:     file format elf32-littleriscv


Disassembly of section .init:

00000000 <__reset_vector__-0x10>:
	...

00000010 <__reset_vector__>:
  10:	11c0006f          	j	12c <_start>
	...

00000020 <__exception_vector__>:
  20:	f8c10113          	addi	sp,sp,-116
  24:	00112023          	sw	ra,0(sp)
  28:	00512223          	sw	t0,4(sp)
  2c:	00612423          	sw	t1,8(sp)
  30:	00712623          	sw	t2,12(sp)
  34:	00812823          	sw	s0,16(sp)
  38:	00912a23          	sw	s1,20(sp)
  3c:	00a12c23          	sw	a0,24(sp)
  40:	00b12e23          	sw	a1,28(sp)
  44:	02c12023          	sw	a2,32(sp)
  48:	02d12223          	sw	a3,36(sp)
  4c:	02e12423          	sw	a4,40(sp)
  50:	02f12623          	sw	a5,44(sp)
  54:	03012823          	sw	a6,48(sp)
  58:	03112a23          	sw	a7,52(sp)
  5c:	03212c23          	sw	s2,56(sp)
  60:	03312e23          	sw	s3,60(sp)
  64:	05412023          	sw	s4,64(sp)
  68:	05512223          	sw	s5,68(sp)
  6c:	05612423          	sw	s6,72(sp)
  70:	05712623          	sw	s7,76(sp)
  74:	05812823          	sw	s8,80(sp)
  78:	05912a23          	sw	s9,84(sp)
  7c:	05a12c23          	sw	s10,88(sp)
  80:	05b12e23          	sw	s11,92(sp)
  84:	07c12023          	sw	t3,96(sp)
  88:	07d12223          	sw	t4,100(sp)
  8c:	07e12423          	sw	t5,104(sp)
  90:	07f12623          	sw	t6,108(sp)
  94:	341025f3          	csrr	a1,mepc
  98:	06b12823          	sw	a1,112(sp)
  9c:	00010513          	mv	a0,sp
  a0:	34202673          	csrr	a2,mcause
  a4:	334000ef          	jal	ra,3d8 <Hal_Exception>
  a8:	00050113          	mv	sp,a0
  ac:	07012503          	lw	a0,112(sp)
  b0:	34151073          	csrw	mepc,a0
  b4:	00012083          	lw	ra,0(sp)
  b8:	00412283          	lw	t0,4(sp)
  bc:	00812303          	lw	t1,8(sp)
  c0:	00c12383          	lw	t2,12(sp)
  c4:	01012403          	lw	s0,16(sp)
  c8:	01412483          	lw	s1,20(sp)
  cc:	01812503          	lw	a0,24(sp)
  d0:	01c12583          	lw	a1,28(sp)
  d4:	02012603          	lw	a2,32(sp)
  d8:	02412683          	lw	a3,36(sp)
  dc:	02812703          	lw	a4,40(sp)
  e0:	02c12783          	lw	a5,44(sp)
  e4:	03012803          	lw	a6,48(sp)
  e8:	03412883          	lw	a7,52(sp)
  ec:	03812903          	lw	s2,56(sp)
  f0:	03c12983          	lw	s3,60(sp)
  f4:	04012a03          	lw	s4,64(sp)
  f8:	04412a83          	lw	s5,68(sp)
  fc:	04812b03          	lw	s6,72(sp)
 100:	04c12b83          	lw	s7,76(sp)
 104:	05012c03          	lw	s8,80(sp)
 108:	05412c83          	lw	s9,84(sp)
 10c:	05812d03          	lw	s10,88(sp)
 110:	05c12d83          	lw	s11,92(sp)
 114:	06012e03          	lw	t3,96(sp)
 118:	06412e83          	lw	t4,100(sp)
 11c:	06812f03          	lw	t5,104(sp)
 120:	06c12f83          	lw	t6,108(sp)
 124:	07410113          	addi	sp,sp,116
 128:	30200073          	mret

Disassembly of section .text:

0000012c <_start>:
 12c:	00000093          	li	ra,0
 130:	00000113          	li	sp,0
 134:	00000193          	li	gp,0
 138:	00000213          	li	tp,0
 13c:	00000293          	li	t0,0
 140:	00000313          	li	t1,0
 144:	00000393          	li	t2,0
 148:	00000413          	li	s0,0
 14c:	00000493          	li	s1,0
 150:	00000513          	li	a0,0
 154:	00000593          	li	a1,0
 158:	00000613          	li	a2,0
 15c:	00000693          	li	a3,0
 160:	00000713          	li	a4,0
 164:	00000793          	li	a5,0
 168:	00000813          	li	a6,0
 16c:	00000893          	li	a7,0
 170:	00000913          	li	s2,0
 174:	00000993          	li	s3,0
 178:	00000a13          	li	s4,0
 17c:	00000a93          	li	s5,0
 180:	00000b13          	li	s6,0
 184:	00000b93          	li	s7,0
 188:	00000c13          	li	s8,0
 18c:	00000c93          	li	s9,0
 190:	00000d13          	li	s10,0
 194:	00000d93          	li	s11,0
 198:	00000e13          	li	t3,0
 19c:	00000e93          	li	t4,0
 1a0:	00000f13          	li	t5,0
 1a4:	00000f93          	li	t6,0
 1a8:	00008117          	auipc	sp,0x8
 1ac:	e4810113          	addi	sp,sp,-440 # 7ff0 <_sp>
 1b0:	00001197          	auipc	gp,0x1
 1b4:	d4018193          	addi	gp,gp,-704 # ef0 <_gp>
 1b8:	394000ef          	jal	ra,54c <main>
 1bc:	0000006f          	j	1bc <_start+0x90>

000001c0 <Hal_EnableMachineInterrupt>:
 1c0:	00100293          	li	t0,1
 1c4:	00a29533          	sll	a0,t0,a0
 1c8:	30452073          	csrs	mie,a0
 1cc:	00008067          	ret

000001d0 <Hal_DisableMachineInterrupt>:
 1d0:	00100293          	li	t0,1
 1d4:	00a29533          	sll	a0,t0,a0
 1d8:	30453073          	csrc	mie,a0
 1dc:	00008067          	ret

000001e0 <Hal_GlobalEnableInterrupts>:
 1e0:	30046073          	csrsi	mstatus,8
 1e4:	00008067          	ret

000001e8 <Hal_GlobalDisableInterrupts>:
 1e8:	30047073          	csrci	mstatus,8
 1ec:	00008067          	ret

000001f0 <Hal_ReadTime32>:
 1f0:	c0102573          	rdtime	a0
 1f4:	00008067          	ret

000001f8 <Hal_ReadTime64>:
 1f8:	c81025f3          	rdtimeh	a1
 1fc:	c0102573          	rdtime	a0
 200:	c81022f3          	rdtimeh	t0
 204:	fe559ae3          	bne	a1,t0,1f8 <Hal_ReadTime64>
 208:	00008067          	ret

0000020c <IRQHandlerUart>:
 20c:	000107b7          	lui	a5,0x10
 210:	20078793          	addi	a5,a5,512 # 10200 <_end_of_memory+0x8201>
 214:	0087a783          	lw	a5,8(a5)
 218:	0807f793          	andi	a5,a5,128
 21c:	02078863          	beqz	a5,24c <IRQHandlerUart+0x40>
 220:	000106b7          	lui	a3,0x10
 224:	2086a783          	lw	a5,520(a3) # 10208 <_end_of_memory+0x8209>
 228:	0807f793          	andi	a5,a5,128
 22c:	fe078ce3          	beqz	a5,224 <IRQHandlerUart+0x18>
 230:	2006a783          	lw	a5,512(a3)
 234:	00010637          	lui	a2,0x10
 238:	20862703          	lw	a4,520(a2) # 10208 <_end_of_memory+0x8209>
 23c:	04077713          	andi	a4,a4,64
 240:	fe070ce3          	beqz	a4,238 <IRQHandlerUart+0x2c>
 244:	0ff7f793          	zext.b	a5,a5
 248:	20f62223          	sw	a5,516(a2)
 24c:	000107b7          	lui	a5,0x10
 250:	2007a423          	sw	zero,520(a5) # 10208 <_end_of_memory+0x8209>
 254:	00008067          	ret

00000258 <UartWrite>:
 258:	00a00713          	li	a4,10
 25c:	00d00693          	li	a3,13
 260:	0005c783          	lbu	a5,0(a1)
 264:	00079463          	bnez	a5,26c <UartWrite+0x14>
 268:	00008067          	ret
 26c:	00e79a63          	bne	a5,a4,280 <UartWrite+0x28>
 270:	00852783          	lw	a5,8(a0)
 274:	0407f793          	andi	a5,a5,64
 278:	fe078ce3          	beqz	a5,270 <UartWrite+0x18>
 27c:	00d52223          	sw	a3,4(a0)
 280:	0005c603          	lbu	a2,0(a1)
 284:	00158593          	addi	a1,a1,1
 288:	00852783          	lw	a5,8(a0)
 28c:	0407f793          	andi	a5,a5,64
 290:	fe078ce3          	beqz	a5,288 <UartWrite+0x30>
 294:	00c52223          	sw	a2,4(a0)
 298:	fc9ff06f          	j	260 <UartWrite+0x8>

0000029c <UartWriteHex8>:
 29c:	00f5f793          	andi	a5,a1,15
 2a0:	00900693          	li	a3,9
 2a4:	0045d593          	srli	a1,a1,0x4
 2a8:	03778713          	addi	a4,a5,55
 2ac:	00f6e463          	bltu	a3,a5,2b4 <UartWriteHex8+0x18>
 2b0:	03078713          	addi	a4,a5,48
 2b4:	00900793          	li	a5,9
 2b8:	03758693          	addi	a3,a1,55
 2bc:	00b7e463          	bltu	a5,a1,2c4 <UartWriteHex8+0x28>
 2c0:	03058693          	addi	a3,a1,48
 2c4:	00852783          	lw	a5,8(a0)
 2c8:	0407f793          	andi	a5,a5,64
 2cc:	fe078ce3          	beqz	a5,2c4 <UartWriteHex8+0x28>
 2d0:	00d52223          	sw	a3,4(a0)
 2d4:	00852783          	lw	a5,8(a0)
 2d8:	0407f793          	andi	a5,a5,64
 2dc:	fe078ce3          	beqz	a5,2d4 <UartWriteHex8+0x38>
 2e0:	00e52223          	sw	a4,4(a0)
 2e4:	00060663          	beqz	a2,2f0 <UartWriteHex8+0x54>
 2e8:	62000593          	li	a1,1568
 2ec:	f6dff06f          	j	258 <UartWrite>
 2f0:	00008067          	ret

000002f4 <UartWriteHex32.constprop.0>:
 2f4:	ff010113          	addi	sp,sp,-16
 2f8:	00812423          	sw	s0,8(sp)
 2fc:	00000613          	li	a2,0
 300:	00058413          	mv	s0,a1
 304:	0185d593          	srli	a1,a1,0x18
 308:	00112623          	sw	ra,12(sp)
 30c:	00912223          	sw	s1,4(sp)
 310:	00050493          	mv	s1,a0
 314:	f89ff0ef          	jal	ra,29c <UartWriteHex8>
 318:	01045593          	srli	a1,s0,0x10
 31c:	00048513          	mv	a0,s1
 320:	00000613          	li	a2,0
 324:	0ff5f593          	zext.b	a1,a1
 328:	f75ff0ef          	jal	ra,29c <UartWriteHex8>
 32c:	00845593          	srli	a1,s0,0x8
 330:	00048513          	mv	a0,s1
 334:	00000613          	li	a2,0
 338:	0ff5f593          	zext.b	a1,a1
 33c:	f61ff0ef          	jal	ra,29c <UartWriteHex8>
 340:	0ff47593          	zext.b	a1,s0
 344:	00812403          	lw	s0,8(sp)
 348:	00c12083          	lw	ra,12(sp)
 34c:	00048513          	mv	a0,s1
 350:	00412483          	lw	s1,4(sp)
 354:	00100613          	li	a2,1
 358:	01010113          	addi	sp,sp,16
 35c:	f41ff06f          	j	29c <UartWriteHex8>

00000360 <Hal_TimerStart>:
 360:	ff010113          	addi	sp,sp,-16
 364:	00812423          	sw	s0,8(sp)
 368:	00050413          	mv	s0,a0
 36c:	00700513          	li	a0,7
 370:	00912223          	sw	s1,4(sp)
 374:	00112623          	sw	ra,12(sp)
 378:	00058493          	mv	s1,a1
 37c:	e55ff0ef          	jal	ra,1d0 <Hal_DisableMachineInterrupt>
 380:	00010737          	lui	a4,0x10
 384:	00872783          	lw	a5,8(a4) # 10008 <_end_of_memory+0x8009>
 388:	01072683          	lw	a3,16(a4)
 38c:	00878533          	add	a0,a5,s0
 390:	00f537b3          	sltu	a5,a0,a5
 394:	009685b3          	add	a1,a3,s1
 398:	00b787b3          	add	a5,a5,a1
 39c:	02f72023          	sw	a5,32(a4)
 3a0:	00a72e23          	sw	a0,28(a4)
 3a4:	00812403          	lw	s0,8(sp)
 3a8:	00c12083          	lw	ra,12(sp)
 3ac:	00412483          	lw	s1,4(sp)
 3b0:	00700513          	li	a0,7
 3b4:	01010113          	addi	sp,sp,16
 3b8:	e09ff06f          	j	1c0 <Hal_EnableMachineInterrupt>

000003bc <IRQHandlerTimer>:
 3bc:	6f002783          	lw	a5,1776(zero) # 6f0 <counterMod>
 3c0:	02faf537          	lui	a0,0x2faf
 3c4:	08050513          	addi	a0,a0,128 # 2faf080 <_end_of_memory+0x2fa7081>
 3c8:	40f007b3          	neg	a5,a5
 3cc:	00000593          	li	a1,0
 3d0:	6ef02823          	sw	a5,1776(zero) # 6f0 <counterMod>
 3d4:	f8dff06f          	j	360 <Hal_TimerStart>

000003d8 <Hal_Exception>:
 3d8:	fe010113          	addi	sp,sp,-32
 3dc:	00912a23          	sw	s1,20(sp)
 3e0:	01212823          	sw	s2,16(sp)
 3e4:	00112e23          	sw	ra,28(sp)
 3e8:	00812c23          	sw	s0,24(sp)
 3ec:	01312623          	sw	s3,12(sp)
 3f0:	01412423          	sw	s4,8(sp)
 3f4:	01512223          	sw	s5,4(sp)
 3f8:	00050913          	mv	s2,a0
 3fc:	00060493          	mv	s1,a2
 400:	0a064c63          	bltz	a2,4b8 <Hal_Exception+0xe0>
 404:	00010437          	lui	s0,0x10
 408:	00058993          	mv	s3,a1
 40c:	20040513          	addi	a0,s0,512 # 10200 <_end_of_memory+0x8201>
 410:	62400593          	li	a1,1572
 414:	e45ff0ef          	jal	ra,258 <UartWrite>
 418:	00090593          	mv	a1,s2
 41c:	20040513          	addi	a0,s0,512
 420:	ed5ff0ef          	jal	ra,2f4 <UartWriteHex32.constprop.0>
 424:	20040513          	addi	a0,s0,512
 428:	63800593          	li	a1,1592
 42c:	e2dff0ef          	jal	ra,258 <UartWrite>
 430:	00098593          	mv	a1,s3
 434:	20040513          	addi	a0,s0,512
 438:	ebdff0ef          	jal	ra,2f4 <UartWriteHex32.constprop.0>
 43c:	20040513          	addi	a0,s0,512
 440:	64800593          	li	a1,1608
 444:	e15ff0ef          	jal	ra,258 <UartWrite>
 448:	00048593          	mv	a1,s1
 44c:	20040513          	addi	a0,s0,512
 450:	ea5ff0ef          	jal	ra,2f4 <UartWriteHex32.constprop.0>
 454:	20040513          	addi	a0,s0,512
 458:	65800593          	li	a1,1624
 45c:	dfdff0ef          	jal	ra,258 <UartWrite>
 460:	00442583          	lw	a1,4(s0)
 464:	20040513          	addi	a0,s0,512
 468:	e8dff0ef          	jal	ra,2f4 <UartWriteHex32.constprop.0>
 46c:	20040513          	addi	a0,s0,512
 470:	66800593          	li	a1,1640
 474:	de5ff0ef          	jal	ra,258 <UartWrite>
 478:	00042583          	lw	a1,0(s0)
 47c:	20040513          	addi	a0,s0,512
 480:	e75ff0ef          	jal	ra,2f4 <UartWriteHex32.constprop.0>
 484:	67800593          	li	a1,1656
 488:	20040513          	addi	a0,s0,512
 48c:	dcdff0ef          	jal	ra,258 <UartWrite>
 490:	343025f3          	csrr	a1,mtval
 494:	20040513          	addi	a0,s0,512
 498:	e5dff0ef          	jal	ra,2f4 <UartWriteHex32.constprop.0>
 49c:	68800593          	li	a1,1672
 4a0:	20040513          	addi	a0,s0,512
 4a4:	db5ff0ef          	jal	ra,258 <UartWrite>
 4a8:	343025f3          	csrr	a1,mtval
 4ac:	20040513          	addi	a0,s0,512
 4b0:	e45ff0ef          	jal	ra,2f4 <UartWriteHex32.constprop.0>
 4b4:	0000006f          	j	4b4 <Hal_Exception+0xdc>
 4b8:	00161493          	slli	s1,a2,0x1
 4bc:	0014d493          	srli	s1,s1,0x1
 4c0:	00b00793          	li	a5,11
 4c4:	06f49863          	bne	s1,a5,534 <Hal_Exception+0x15c>
 4c8:	000107b7          	lui	a5,0x10
 4cc:	0007a983          	lw	s3,0(a5) # 10000 <_end_of_memory+0x8001>
 4d0:	0047a783          	lw	a5,4(a5)
 4d4:	6f800413          	li	s0,1784
 4d8:	00f9f9b3          	and	s3,s3,a5
 4dc:	00000493          	li	s1,0
 4e0:	00100a93          	li	s5,1
 4e4:	02000a13          	li	s4,32
 4e8:	009a97b3          	sll	a5,s5,s1
 4ec:	0137f7b3          	and	a5,a5,s3
 4f0:	00078863          	beqz	a5,500 <Hal_Exception+0x128>
 4f4:	00042783          	lw	a5,0(s0)
 4f8:	00078463          	beqz	a5,500 <Hal_Exception+0x128>
 4fc:	000780e7          	jalr	a5
 500:	00148493          	addi	s1,s1,1
 504:	00440413          	addi	s0,s0,4
 508:	ff4490e3          	bne	s1,s4,4e8 <Hal_Exception+0x110>
 50c:	01c12083          	lw	ra,28(sp)
 510:	01812403          	lw	s0,24(sp)
 514:	01412483          	lw	s1,20(sp)
 518:	00c12983          	lw	s3,12(sp)
 51c:	00812a03          	lw	s4,8(sp)
 520:	00412a83          	lw	s5,4(sp)
 524:	00090513          	mv	a0,s2
 528:	01012903          	lw	s2,16(sp)
 52c:	02010113          	addi	sp,sp,32
 530:	00008067          	ret
 534:	00700793          	li	a5,7
 538:	fcf49ae3          	bne	s1,a5,50c <Hal_Exception+0x134>
 53c:	6f402783          	lw	a5,1780(zero) # 6f4 <Hal_TimerIrqCallback>
 540:	fc0786e3          	beqz	a5,50c <Hal_Exception+0x134>
 544:	000780e7          	jalr	a5
 548:	fc5ff06f          	j	50c <Hal_Exception+0x134>

Disassembly of section .text.startup:

0000054c <main>:
 54c:	fe010113          	addi	sp,sp,-32
 550:	00812c23          	sw	s0,24(sp)
 554:	00010437          	lui	s0,0x10
 558:	20040513          	addi	a0,s0,512 # 10200 <_end_of_memory+0x8201>
 55c:	69800593          	li	a1,1688
 560:	00112e23          	sw	ra,28(sp)
 564:	00912a23          	sw	s1,20(sp)
 568:	01212823          	sw	s2,16(sp)
 56c:	01312623          	sw	s3,12(sp)
 570:	ce9ff0ef          	jal	ra,258 <UartWrite>
 574:	20040513          	addi	a0,s0,512
 578:	6b400593          	li	a1,1716
 57c:	cddff0ef          	jal	ra,258 <UartWrite>
 580:	20040513          	addi	a0,s0,512
 584:	6c400593          	li	a1,1732
 588:	cd1ff0ef          	jal	ra,258 <UartWrite>
 58c:	20040513          	addi	a0,s0,512
 590:	6cc00593          	li	a1,1740
 594:	cc5ff0ef          	jal	ra,258 <UartWrite>
 598:	6e400593          	li	a1,1764
 59c:	20040513          	addi	a0,s0,512
 5a0:	cb9ff0ef          	jal	ra,258 <UartWrite>
 5a4:	fff00713          	li	a4,-1
 5a8:	10e42223          	sw	a4,260(s0)
 5ac:	20c00793          	li	a5,524
 5b0:	6ef02c23          	sw	a5,1784(zero) # 6f8 <Hal_ExtIrqCallback>
 5b4:	00442783          	lw	a5,4(s0)
 5b8:	00b00513          	li	a0,11
 5bc:	000bf4b7          	lui	s1,0xbf
 5c0:	0017e793          	ori	a5,a5,1
 5c4:	00f42223          	sw	a5,4(s0)
 5c8:	20c42783          	lw	a5,524(s0)
 5cc:	bc248493          	addi	s1,s1,-1086 # bebc2 <_end_of_memory+0xb6bc3>
 5d0:	00010937          	lui	s2,0x10
 5d4:	0807e793          	ori	a5,a5,128
 5d8:	20f42623          	sw	a5,524(s0)
 5dc:	be5ff0ef          	jal	ra,1c0 <Hal_EnableMachineInterrupt>
 5e0:	04787537          	lui	a0,0x4787
 5e4:	3bc00793          	li	a5,956
 5e8:	8c050513          	addi	a0,a0,-1856 # 47868c0 <_end_of_memory+0x477e8c1>
 5ec:	00000593          	li	a1,0
 5f0:	6ef02a23          	sw	a5,1780(zero) # 6f4 <Hal_TimerIrqCallback>
 5f4:	d6dff0ef          	jal	ra,360 <Hal_TimerStart>
 5f8:	be9ff0ef          	jal	ra,1e0 <Hal_GlobalEnableInterrupts>
 5fc:	bf5ff0ef          	jal	ra,1f0 <Hal_ReadTime32>
 600:	00050413          	mv	s0,a0
 604:	0ff00993          	li	s3,255
 608:	be9ff0ef          	jal	ra,1f0 <Hal_ReadTime32>
 60c:	408507b3          	sub	a5,a0,s0
 610:	fef4fce3          	bgeu	s1,a5,608 <main+0xbc>
 614:	11392023          	sw	s3,256(s2) # 10100 <_end_of_memory+0x8101>
 618:	00050413          	mv	s0,a0
 61c:	fedff06f          	j	608 <main+0xbc>
