
out/bootrom.elf:     file format elf32-littleriscv


Disassembly of section .init:

00000000 <__reset_vector__-0x10>:
	...

00000010 <__reset_vector__>:
  10:	11c0006f          	j	12c <_start>
	...

00000020 <__exception_vector__>:
  20:	f8c10113          	addi	sp,sp,-116
  24:	00112023          	sw	ra,0(sp)
  28:	00512223          	sw	t0,4(sp)
  2c:	00612423          	sw	t1,8(sp)
  30:	00712623          	sw	t2,12(sp)
  34:	00812823          	sw	s0,16(sp)
  38:	00912a23          	sw	s1,20(sp)
  3c:	00a12c23          	sw	a0,24(sp)
  40:	00b12e23          	sw	a1,28(sp)
  44:	02c12023          	sw	a2,32(sp)
  48:	02d12223          	sw	a3,36(sp)
  4c:	02e12423          	sw	a4,40(sp)
  50:	02f12623          	sw	a5,44(sp)
  54:	03012823          	sw	a6,48(sp)
  58:	03112a23          	sw	a7,52(sp)
  5c:	03212c23          	sw	s2,56(sp)
  60:	03312e23          	sw	s3,60(sp)
  64:	05412023          	sw	s4,64(sp)
  68:	05512223          	sw	s5,68(sp)
  6c:	05612423          	sw	s6,72(sp)
  70:	05712623          	sw	s7,76(sp)
  74:	05812823          	sw	s8,80(sp)
  78:	05912a23          	sw	s9,84(sp)
  7c:	05a12c23          	sw	s10,88(sp)
  80:	05b12e23          	sw	s11,92(sp)
  84:	07c12023          	sw	t3,96(sp)
  88:	07d12223          	sw	t4,100(sp)
  8c:	07e12423          	sw	t5,104(sp)
  90:	07f12623          	sw	t6,108(sp)
  94:	341025f3          	csrr	a1,mepc
  98:	06b12823          	sw	a1,112(sp)
  9c:	00010513          	mv	a0,sp
  a0:	34202673          	csrr	a2,mcause
  a4:	4ec000ef          	jal	ra,590 <Hal_Exception>
  a8:	00050113          	mv	sp,a0
  ac:	07012503          	lw	a0,112(sp)
  b0:	34151073          	csrw	mepc,a0
  b4:	00012083          	lw	ra,0(sp)
  b8:	00412283          	lw	t0,4(sp)
  bc:	00812303          	lw	t1,8(sp)
  c0:	00c12383          	lw	t2,12(sp)
  c4:	01012403          	lw	s0,16(sp)
  c8:	01412483          	lw	s1,20(sp)
  cc:	01812503          	lw	a0,24(sp)
  d0:	01c12583          	lw	a1,28(sp)
  d4:	02012603          	lw	a2,32(sp)
  d8:	02412683          	lw	a3,36(sp)
  dc:	02812703          	lw	a4,40(sp)
  e0:	02c12783          	lw	a5,44(sp)
  e4:	03012803          	lw	a6,48(sp)
  e8:	03412883          	lw	a7,52(sp)
  ec:	03812903          	lw	s2,56(sp)
  f0:	03c12983          	lw	s3,60(sp)
  f4:	04012a03          	lw	s4,64(sp)
  f8:	04412a83          	lw	s5,68(sp)
  fc:	04812b03          	lw	s6,72(sp)
 100:	04c12b83          	lw	s7,76(sp)
 104:	05012c03          	lw	s8,80(sp)
 108:	05412c83          	lw	s9,84(sp)
 10c:	05812d03          	lw	s10,88(sp)
 110:	05c12d83          	lw	s11,92(sp)
 114:	06012e03          	lw	t3,96(sp)
 118:	06412e83          	lw	t4,100(sp)
 11c:	06812f03          	lw	t5,104(sp)
 120:	06c12f83          	lw	t6,108(sp)
 124:	07410113          	addi	sp,sp,116
 128:	30200073          	mret

Disassembly of section .text:

0000012c <_start>:
 12c:	00000093          	li	ra,0
 130:	00000113          	li	sp,0
 134:	00000193          	li	gp,0
 138:	00000213          	li	tp,0
 13c:	00000293          	li	t0,0
 140:	00000313          	li	t1,0
 144:	00000393          	li	t2,0
 148:	00000413          	li	s0,0
 14c:	00000493          	li	s1,0
 150:	00000513          	li	a0,0
 154:	00000593          	li	a1,0
 158:	00000613          	li	a2,0
 15c:	00000693          	li	a3,0
 160:	00000713          	li	a4,0
 164:	00000793          	li	a5,0
 168:	00000813          	li	a6,0
 16c:	00000893          	li	a7,0
 170:	00000913          	li	s2,0
 174:	00000993          	li	s3,0
 178:	00000a13          	li	s4,0
 17c:	00000a93          	li	s5,0
 180:	00000b13          	li	s6,0
 184:	00000b93          	li	s7,0
 188:	00000c13          	li	s8,0
 18c:	00000c93          	li	s9,0
 190:	00000d13          	li	s10,0
 194:	00000d93          	li	s11,0
 198:	00000e13          	li	t3,0
 19c:	00000e93          	li	t4,0
 1a0:	00000f13          	li	t5,0
 1a4:	00000f93          	li	t6,0
 1a8:	00008117          	auipc	sp,0x8
 1ac:	e4810113          	addi	sp,sp,-440 # 7ff0 <_sp>
 1b0:	00001197          	auipc	gp,0x1
 1b4:	5fc18193          	addi	gp,gp,1532 # 17ac <_gp>
 1b8:	770000ef          	jal	ra,928 <main>
 1bc:	0000006f          	j	1bc <_start+0x90>

000001c0 <Hal_EnableMachineInterrupt>:
 1c0:	00100293          	li	t0,1
 1c4:	00a29533          	sll	a0,t0,a0
 1c8:	30452073          	csrs	mie,a0
 1cc:	00008067          	ret

000001d0 <Hal_DisableMachineInterrupt>:
 1d0:	00100293          	li	t0,1
 1d4:	00a29533          	sll	a0,t0,a0
 1d8:	30453073          	csrc	mie,a0
 1dc:	00008067          	ret

000001e0 <Hal_GlobalEnableInterrupts>:
 1e0:	30046073          	csrsi	mstatus,8
 1e4:	00008067          	ret

000001e8 <Hal_GlobalDisableInterrupts>:
 1e8:	30047073          	csrci	mstatus,8
 1ec:	00008067          	ret

000001f0 <Hal_ReadTime32>:
 1f0:	c0102573          	rdtime	a0
 1f4:	00008067          	ret

000001f8 <Hal_ReadTime64>:
 1f8:	c81025f3          	rdtimeh	a1
 1fc:	c0102573          	rdtime	a0
 200:	c81022f3          	rdtimeh	t0
 204:	fe559ae3          	bne	a1,t0,1f8 <Hal_ReadTime64>
 208:	00008067          	ret

0000020c <Hal_SetExtIrqHandler>:
 20c:	fe010113          	addi	sp,sp,-32
 210:	00812e23          	sw	s0,28(sp)
 214:	02010413          	addi	s0,sp,32
 218:	fea42623          	sw	a0,-20(s0)
 21c:	feb42423          	sw	a1,-24(s0)
 220:	000017b7          	lui	a5,0x1
 224:	fbc78713          	addi	a4,a5,-68 # fbc <Hal_ExtIrqCallback>
 228:	fec42783          	lw	a5,-20(s0)
 22c:	00279793          	slli	a5,a5,0x2
 230:	00f707b3          	add	a5,a4,a5
 234:	fe842703          	lw	a4,-24(s0)
 238:	00e7a023          	sw	a4,0(a5)
 23c:	00000013          	nop
 240:	01c12403          	lw	s0,28(sp)
 244:	02010113          	addi	sp,sp,32
 248:	00008067          	ret

0000024c <Hal_SetTimerIrqHandler>:
 24c:	fe010113          	addi	sp,sp,-32
 250:	00812e23          	sw	s0,28(sp)
 254:	02010413          	addi	s0,sp,32
 258:	fea42623          	sw	a0,-20(s0)
 25c:	000017b7          	lui	a5,0x1
 260:	fec42703          	lw	a4,-20(s0)
 264:	02e7ae23          	sw	a4,60(a5) # 103c <Hal_TimerIrqCallback>
 268:	00000013          	nop
 26c:	01c12403          	lw	s0,28(sp)
 270:	02010113          	addi	sp,sp,32
 274:	00008067          	ret

00000278 <Hal_SetSoftIrqHandler>:
 278:	fe010113          	addi	sp,sp,-32
 27c:	00812e23          	sw	s0,28(sp)
 280:	02010413          	addi	s0,sp,32
 284:	fea42623          	sw	a0,-20(s0)
 288:	000017b7          	lui	a5,0x1
 28c:	fec42703          	lw	a4,-20(s0)
 290:	04e7a023          	sw	a4,64(a5) # 1040 <Hal_SoftIrqCallback>
 294:	00000013          	nop
 298:	01c12403          	lw	s0,28(sp)
 29c:	02010113          	addi	sp,sp,32
 2a0:	00008067          	ret

000002a4 <Hal_EnableInterrupt>:
 2a4:	fe010113          	addi	sp,sp,-32
 2a8:	00112e23          	sw	ra,28(sp)
 2ac:	00812c23          	sw	s0,24(sp)
 2b0:	02010413          	addi	s0,sp,32
 2b4:	fea42623          	sw	a0,-20(s0)
 2b8:	fec42783          	lw	a5,-20(s0)
 2bc:	00100713          	li	a4,1
 2c0:	00f717b3          	sll	a5,a4,a5
 2c4:	00078513          	mv	a0,a5
 2c8:	054000ef          	jal	ra,31c <Hal_EnableInterrupts>
 2cc:	00000013          	nop
 2d0:	01c12083          	lw	ra,28(sp)
 2d4:	01812403          	lw	s0,24(sp)
 2d8:	02010113          	addi	sp,sp,32
 2dc:	00008067          	ret

000002e0 <Hal_DisableInterrupt>:
 2e0:	fe010113          	addi	sp,sp,-32
 2e4:	00112e23          	sw	ra,28(sp)
 2e8:	00812c23          	sw	s0,24(sp)
 2ec:	02010413          	addi	s0,sp,32
 2f0:	fea42623          	sw	a0,-20(s0)
 2f4:	fec42783          	lw	a5,-20(s0)
 2f8:	00100713          	li	a4,1
 2fc:	00f717b3          	sll	a5,a4,a5
 300:	00078513          	mv	a0,a5
 304:	058000ef          	jal	ra,35c <Hal_DisableInterrupts>
 308:	00000013          	nop
 30c:	01c12083          	lw	ra,28(sp)
 310:	01812403          	lw	s0,24(sp)
 314:	02010113          	addi	sp,sp,32
 318:	00008067          	ret

0000031c <Hal_EnableInterrupts>:
 31c:	fe010113          	addi	sp,sp,-32
 320:	00812e23          	sw	s0,28(sp)
 324:	02010413          	addi	s0,sp,32
 328:	fea42623          	sw	a0,-20(s0)
 32c:	000017b7          	lui	a5,0x1
 330:	fb47a783          	lw	a5,-76(a5) # fb4 <g_InterruptController>
 334:	0047a683          	lw	a3,4(a5)
 338:	000017b7          	lui	a5,0x1
 33c:	fb47a783          	lw	a5,-76(a5) # fb4 <g_InterruptController>
 340:	fec42703          	lw	a4,-20(s0)
 344:	00e6e733          	or	a4,a3,a4
 348:	00e7a223          	sw	a4,4(a5)
 34c:	00000013          	nop
 350:	01c12403          	lw	s0,28(sp)
 354:	02010113          	addi	sp,sp,32
 358:	00008067          	ret

0000035c <Hal_DisableInterrupts>:
 35c:	fe010113          	addi	sp,sp,-32
 360:	00812e23          	sw	s0,28(sp)
 364:	02010413          	addi	s0,sp,32
 368:	fea42623          	sw	a0,-20(s0)
 36c:	000017b7          	lui	a5,0x1
 370:	fb47a783          	lw	a5,-76(a5) # fb4 <g_InterruptController>
 374:	0047a683          	lw	a3,4(a5)
 378:	fec42783          	lw	a5,-20(s0)
 37c:	fff7c713          	not	a4,a5
 380:	000017b7          	lui	a5,0x1
 384:	fb47a783          	lw	a5,-76(a5) # fb4 <g_InterruptController>
 388:	00e6f733          	and	a4,a3,a4
 38c:	00e7a223          	sw	a4,4(a5)
 390:	00000013          	nop
 394:	01c12403          	lw	s0,28(sp)
 398:	02010113          	addi	sp,sp,32
 39c:	00008067          	ret

000003a0 <Hal_Delay>:
 3a0:	fd010113          	addi	sp,sp,-48
 3a4:	02112623          	sw	ra,44(sp)
 3a8:	02812423          	sw	s0,40(sp)
 3ac:	03010413          	addi	s0,sp,48
 3b0:	fca42e23          	sw	a0,-36(s0)
 3b4:	e3dff0ef          	jal	ra,1f0 <Hal_ReadTime32>
 3b8:	fea42623          	sw	a0,-20(s0)
 3bc:	00000013          	nop
 3c0:	e31ff0ef          	jal	ra,1f0 <Hal_ReadTime32>
 3c4:	00050713          	mv	a4,a0
 3c8:	fec42783          	lw	a5,-20(s0)
 3cc:	40f707b3          	sub	a5,a4,a5
 3d0:	fdc42703          	lw	a4,-36(s0)
 3d4:	fee7e6e3          	bltu	a5,a4,3c0 <Hal_Delay+0x20>
 3d8:	00000013          	nop
 3dc:	00000013          	nop
 3e0:	02c12083          	lw	ra,44(sp)
 3e4:	02812403          	lw	s0,40(sp)
 3e8:	03010113          	addi	sp,sp,48
 3ec:	00008067          	ret

000003f0 <Hal_TimerStart>:
 3f0:	fb010113          	addi	sp,sp,-80
 3f4:	04112623          	sw	ra,76(sp)
 3f8:	04812423          	sw	s0,72(sp)
 3fc:	05212223          	sw	s2,68(sp)
 400:	05312023          	sw	s3,64(sp)
 404:	03412e23          	sw	s4,60(sp)
 408:	03512c23          	sw	s5,56(sp)
 40c:	03612a23          	sw	s6,52(sp)
 410:	03712823          	sw	s7,48(sp)
 414:	03812623          	sw	s8,44(sp)
 418:	03912423          	sw	s9,40(sp)
 41c:	05010413          	addi	s0,sp,80
 420:	faa42c23          	sw	a0,-72(s0)
 424:	fab42e23          	sw	a1,-68(s0)
 428:	00700513          	li	a0,7
 42c:	da5ff0ef          	jal	ra,1d0 <Hal_DisableMachineInterrupt>
 430:	000017b7          	lui	a5,0x1
 434:	fb47a783          	lw	a5,-76(a5) # fb4 <g_InterruptController>
 438:	0087a783          	lw	a5,8(a5)
 43c:	fcf42423          	sw	a5,-56(s0)
 440:	fc042623          	sw	zero,-52(s0)
 444:	000017b7          	lui	a5,0x1
 448:	fb47a783          	lw	a5,-76(a5) # fb4 <g_InterruptController>
 44c:	0107a783          	lw	a5,16(a5)
 450:	00078c13          	mv	s8,a5
 454:	00000c93          	li	s9,0
 458:	000c1993          	slli	s3,s8,0x0
 45c:	00000913          	li	s2,0
 460:	fc842783          	lw	a5,-56(s0)
 464:	0127ea33          	or	s4,a5,s2
 468:	fcc42783          	lw	a5,-52(s0)
 46c:	0137eab3          	or	s5,a5,s3
 470:	fd442423          	sw	s4,-56(s0)
 474:	fd542623          	sw	s5,-52(s0)
 478:	fc842603          	lw	a2,-56(s0)
 47c:	fcc42683          	lw	a3,-52(s0)
 480:	fb842503          	lw	a0,-72(s0)
 484:	fbc42583          	lw	a1,-68(s0)
 488:	00a60733          	add	a4,a2,a0
 48c:	00070813          	mv	a6,a4
 490:	00c83833          	sltu	a6,a6,a2
 494:	00b687b3          	add	a5,a3,a1
 498:	00f806b3          	add	a3,a6,a5
 49c:	00068793          	mv	a5,a3
 4a0:	fce42423          	sw	a4,-56(s0)
 4a4:	fcf42623          	sw	a5,-52(s0)
 4a8:	fcc42783          	lw	a5,-52(s0)
 4ac:	0007db13          	srli	s6,a5,0x0
 4b0:	00000b93          	li	s7,0
 4b4:	000017b7          	lui	a5,0x1
 4b8:	fb47a783          	lw	a5,-76(a5) # fb4 <g_InterruptController>
 4bc:	000b0713          	mv	a4,s6
 4c0:	02e7a023          	sw	a4,32(a5)
 4c4:	000017b7          	lui	a5,0x1
 4c8:	fb47a783          	lw	a5,-76(a5) # fb4 <g_InterruptController>
 4cc:	fc842703          	lw	a4,-56(s0)
 4d0:	00e7ae23          	sw	a4,28(a5)
 4d4:	00700513          	li	a0,7
 4d8:	ce9ff0ef          	jal	ra,1c0 <Hal_EnableMachineInterrupt>
 4dc:	00000013          	nop
 4e0:	04c12083          	lw	ra,76(sp)
 4e4:	04812403          	lw	s0,72(sp)
 4e8:	04412903          	lw	s2,68(sp)
 4ec:	04012983          	lw	s3,64(sp)
 4f0:	03c12a03          	lw	s4,60(sp)
 4f4:	03812a83          	lw	s5,56(sp)
 4f8:	03412b03          	lw	s6,52(sp)
 4fc:	03012b83          	lw	s7,48(sp)
 500:	02c12c03          	lw	s8,44(sp)
 504:	02812c83          	lw	s9,40(sp)
 508:	05010113          	addi	sp,sp,80
 50c:	00008067          	ret

00000510 <Hal_TimerStop>:
 510:	ff010113          	addi	sp,sp,-16
 514:	00112623          	sw	ra,12(sp)
 518:	00812423          	sw	s0,8(sp)
 51c:	01010413          	addi	s0,sp,16
 520:	00700513          	li	a0,7
 524:	cadff0ef          	jal	ra,1d0 <Hal_DisableMachineInterrupt>
 528:	00000013          	nop
 52c:	00c12083          	lw	ra,12(sp)
 530:	00812403          	lw	s0,8(sp)
 534:	01010113          	addi	sp,sp,16
 538:	00008067          	ret

0000053c <Hal_RaiseSoftInterrupt>:
 53c:	ff010113          	addi	sp,sp,-16
 540:	00812623          	sw	s0,12(sp)
 544:	01010413          	addi	s0,sp,16
 548:	000017b7          	lui	a5,0x1
 54c:	fb47a783          	lw	a5,-76(a5) # fb4 <g_InterruptController>
 550:	00100713          	li	a4,1
 554:	02e7a223          	sw	a4,36(a5)
 558:	00000013          	nop
 55c:	00c12403          	lw	s0,12(sp)
 560:	01010113          	addi	sp,sp,16
 564:	00008067          	ret

00000568 <Hal_ClearSoftInterrupt>:
 568:	ff010113          	addi	sp,sp,-16
 56c:	00812623          	sw	s0,12(sp)
 570:	01010413          	addi	s0,sp,16
 574:	000017b7          	lui	a5,0x1
 578:	fb47a783          	lw	a5,-76(a5) # fb4 <g_InterruptController>
 57c:	0207a223          	sw	zero,36(a5)
 580:	00000013          	nop
 584:	00c12403          	lw	s0,12(sp)
 588:	01010113          	addi	sp,sp,16
 58c:	00008067          	ret

00000590 <Hal_Exception>:
 590:	fd010113          	addi	sp,sp,-48
 594:	02112623          	sw	ra,44(sp)
 598:	02812423          	sw	s0,40(sp)
 59c:	03010413          	addi	s0,sp,48
 5a0:	fca42e23          	sw	a0,-36(s0)
 5a4:	fcb42c23          	sw	a1,-40(s0)
 5a8:	fcc42a23          	sw	a2,-44(s0)
 5ac:	fd442783          	lw	a5,-44(s0)
 5b0:	1807c463          	bltz	a5,738 <Hal.c.dd1aa535+0xce>
 5b4:	000017b7          	lui	a5,0x1
 5b8:	fb07a703          	lw	a4,-80(a5) # fb0 <g_Uart>
 5bc:	000017b7          	lui	a5,0x1
 5c0:	edc78593          	addi	a1,a5,-292 # edc <UartGetNonBlocking+0x54>
 5c4:	00070513          	mv	a0,a4
 5c8:	7c0000ef          	jal	ra,d88 <UartWrite>
 5cc:	000017b7          	lui	a5,0x1
 5d0:	fb07a783          	lw	a5,-80(a5) # fb0 <g_Uart>
 5d4:	00100613          	li	a2,1
 5d8:	fdc42583          	lw	a1,-36(s0)
 5dc:	00078513          	mv	a0,a5
 5e0:	620000ef          	jal	ra,c00 <UartWriteHex32>
 5e4:	000017b7          	lui	a5,0x1
 5e8:	fb07a703          	lw	a4,-80(a5) # fb0 <g_Uart>
 5ec:	000017b7          	lui	a5,0x1
 5f0:	ef078593          	addi	a1,a5,-272 # ef0 <UartGetNonBlocking+0x68>
 5f4:	00070513          	mv	a0,a4
 5f8:	790000ef          	jal	ra,d88 <UartWrite>
 5fc:	000017b7          	lui	a5,0x1
 600:	fb07a783          	lw	a5,-80(a5) # fb0 <g_Uart>
 604:	00100613          	li	a2,1
 608:	fd842583          	lw	a1,-40(s0)
 60c:	00078513          	mv	a0,a5
 610:	5f0000ef          	jal	ra,c00 <UartWriteHex32>
 614:	000017b7          	lui	a5,0x1
 618:	fb07a703          	lw	a4,-80(a5) # fb0 <g_Uart>
 61c:	000017b7          	lui	a5,0x1
 620:	f0078593          	addi	a1,a5,-256 # f00 <UartGetNonBlocking+0x78>
 624:	00070513          	mv	a0,a4
 628:	760000ef          	jal	ra,d88 <UartWrite>
 62c:	000017b7          	lui	a5,0x1
 630:	fb07a783          	lw	a5,-80(a5) # fb0 <g_Uart>
 634:	00100613          	li	a2,1
 638:	fd442583          	lw	a1,-44(s0)
 63c:	00078513          	mv	a0,a5
 640:	5c0000ef          	jal	ra,c00 <UartWriteHex32>
 644:	000017b7          	lui	a5,0x1
 648:	fb07a703          	lw	a4,-80(a5) # fb0 <g_Uart>
 64c:	000017b7          	lui	a5,0x1
 650:	f1078593          	addi	a1,a5,-240 # f10 <UartGetNonBlocking+0x88>
 654:	00070513          	mv	a0,a4
 658:	730000ef          	jal	ra,d88 <UartWrite>
 65c:	000017b7          	lui	a5,0x1
 660:	fb07a703          	lw	a4,-80(a5) # fb0 <g_Uart>
 664:	000017b7          	lui	a5,0x1
 668:	fb47a783          	lw	a5,-76(a5) # fb4 <g_InterruptController>
 66c:	0047a783          	lw	a5,4(a5)
 670:	00100613          	li	a2,1
 674:	00078593          	mv	a1,a5
 678:	00070513          	mv	a0,a4
 67c:	584000ef          	jal	ra,c00 <UartWriteHex32>
 680:	000017b7          	lui	a5,0x1
 684:	fb07a703          	lw	a4,-80(a5) # fb0 <g_Uart>
 688:	000017b7          	lui	a5,0x1
 68c:	f2078593          	addi	a1,a5,-224 # f20 <UartGetNonBlocking+0x98>
 690:	00070513          	mv	a0,a4
 694:	6f4000ef          	jal	ra,d88 <UartWrite>
 698:	000017b7          	lui	a5,0x1
 69c:	fb07a703          	lw	a4,-80(a5) # fb0 <g_Uart>
 6a0:	000017b7          	lui	a5,0x1
 6a4:	fb47a783          	lw	a5,-76(a5) # fb4 <g_InterruptController>
 6a8:	0007a783          	lw	a5,0(a5)
 6ac:	00100613          	li	a2,1
 6b0:	00078593          	mv	a1,a5
 6b4:	00070513          	mv	a0,a4
 6b8:	548000ef          	jal	ra,c00 <UartWriteHex32>
 6bc:	000017b7          	lui	a5,0x1
 6c0:	fb07a703          	lw	a4,-80(a5) # fb0 <g_Uart>
 6c4:	000017b7          	lui	a5,0x1
 6c8:	f3078593          	addi	a1,a5,-208 # f30 <UartGetNonBlocking+0xa8>
 6cc:	00070513          	mv	a0,a4
 6d0:	6b8000ef          	jal	ra,d88 <UartWrite>
 6d4:	000017b7          	lui	a5,0x1
 6d8:	fb07a703          	lw	a4,-80(a5) # fb0 <g_Uart>
 6dc:	343027f3          	csrr	a5,mtval
 6e0:	fef42223          	sw	a5,-28(s0)
 6e4:	fe442783          	lw	a5,-28(s0)
 6e8:	00100613          	li	a2,1
 6ec:	00078593          	mv	a1,a5
 6f0:	00070513          	mv	a0,a4
 6f4:	50c000ef          	jal	ra,c00 <UartWriteHex32>
 6f8:	000017b7          	lui	a5,0x1
 6fc:	fb07a703          	lw	a4,-80(a5) # fb0 <g_Uart>
 700:	000017b7          	lui	a5,0x1
 704:	f4078593          	addi	a1,a5,-192 # f40 <UartGetNonBlocking+0xb8>
 708:	00070513          	mv	a0,a4
 70c:	67c000ef          	jal	ra,d88 <UartWrite>
 710:	000017b7          	lui	a5,0x1
 714:	fb07a703          	lw	a4,-80(a5) # fb0 <g_Uart>
 718:	343027f3          	csrr	a5,mtval
 71c:	fef42023          	sw	a5,-32(s0)
 720:	fe042783          	lw	a5,-32(s0)
 724:	00100613          	li	a2,1
 728:	00078593          	mv	a1,a5
 72c:	00070513          	mv	a0,a4
 730:	4d0000ef          	jal	ra,c00 <UartWriteHex32>
 734:	0000006f          	j	734 <Hal.c.dd1aa535+0xca>
 738:	fd442703          	lw	a4,-44(s0)
 73c:	800007b7          	lui	a5,0x80000
 740:	fff7c793          	not	a5,a5
 744:	00f77733          	and	a4,a4,a5
 748:	00b00793          	li	a5,11
 74c:	08f71e63          	bne	a4,a5,7e8 <Hal.c.dd1aa535+0x17e>
 750:	000017b7          	lui	a5,0x1
 754:	fb47a783          	lw	a5,-76(a5) # fb4 <g_InterruptController>
 758:	0007a703          	lw	a4,0(a5)
 75c:	000017b7          	lui	a5,0x1
 760:	fb47a783          	lw	a5,-76(a5) # fb4 <g_InterruptController>
 764:	0047a783          	lw	a5,4(a5)
 768:	00f777b3          	and	a5,a4,a5
 76c:	fef42423          	sw	a5,-24(s0)
 770:	fe042623          	sw	zero,-20(s0)
 774:	0640006f          	j	7d8 <Hal.c.dd1aa535+0x16e>
 778:	fec42783          	lw	a5,-20(s0)
 77c:	00100713          	li	a4,1
 780:	00f717b3          	sll	a5,a4,a5
 784:	00078713          	mv	a4,a5
 788:	fe842783          	lw	a5,-24(s0)
 78c:	00f777b3          	and	a5,a4,a5
 790:	02078e63          	beqz	a5,7cc <Hal.c.dd1aa535+0x162>
 794:	000017b7          	lui	a5,0x1
 798:	fbc78713          	addi	a4,a5,-68 # fbc <Hal_ExtIrqCallback>
 79c:	fec42783          	lw	a5,-20(s0)
 7a0:	00279793          	slli	a5,a5,0x2
 7a4:	00f707b3          	add	a5,a4,a5
 7a8:	0007a783          	lw	a5,0(a5)
 7ac:	02078063          	beqz	a5,7cc <Hal.c.dd1aa535+0x162>
 7b0:	000017b7          	lui	a5,0x1
 7b4:	fbc78713          	addi	a4,a5,-68 # fbc <Hal_ExtIrqCallback>
 7b8:	fec42783          	lw	a5,-20(s0)
 7bc:	00279793          	slli	a5,a5,0x2
 7c0:	00f707b3          	add	a5,a4,a5
 7c4:	0007a783          	lw	a5,0(a5)
 7c8:	000780e7          	jalr	a5
 7cc:	fec42783          	lw	a5,-20(s0)
 7d0:	00178793          	addi	a5,a5,1
 7d4:	fef42623          	sw	a5,-20(s0)
 7d8:	fec42703          	lw	a4,-20(s0)
 7dc:	01f00793          	li	a5,31
 7e0:	f8e7fce3          	bgeu	a5,a4,778 <Hal.c.dd1aa535+0x10e>
 7e4:	0680006f          	j	84c <Hal.c.dd1aa535+0x1e2>
 7e8:	fd442703          	lw	a4,-44(s0)
 7ec:	800007b7          	lui	a5,0x80000
 7f0:	fff7c793          	not	a5,a5
 7f4:	00f77733          	and	a4,a4,a5
 7f8:	00700793          	li	a5,7
 7fc:	02f71063          	bne	a4,a5,81c <Hal.c.dd1aa535+0x1b2>
 800:	000017b7          	lui	a5,0x1
 804:	03c7a783          	lw	a5,60(a5) # 103c <Hal_TimerIrqCallback>
 808:	04078263          	beqz	a5,84c <Hal.c.dd1aa535+0x1e2>
 80c:	000017b7          	lui	a5,0x1
 810:	03c7a783          	lw	a5,60(a5) # 103c <Hal_TimerIrqCallback>
 814:	000780e7          	jalr	a5
 818:	0340006f          	j	84c <Hal.c.dd1aa535+0x1e2>
 81c:	fd442703          	lw	a4,-44(s0)
 820:	800007b7          	lui	a5,0x80000
 824:	fff7c793          	not	a5,a5
 828:	00f77733          	and	a4,a4,a5
 82c:	00300793          	li	a5,3
 830:	00f71e63          	bne	a4,a5,84c <Hal.c.dd1aa535+0x1e2>
 834:	000017b7          	lui	a5,0x1
 838:	0407a783          	lw	a5,64(a5) # 1040 <Hal_SoftIrqCallback>
 83c:	00078863          	beqz	a5,84c <Hal.c.dd1aa535+0x1e2>
 840:	000017b7          	lui	a5,0x1
 844:	0407a783          	lw	a5,64(a5) # 1040 <Hal_SoftIrqCallback>
 848:	000780e7          	jalr	a5
 84c:	fdc42783          	lw	a5,-36(s0)
 850:	00000013          	nop
 854:	00000013          	nop
 858:	00078513          	mv	a0,a5
 85c:	02c12083          	lw	ra,44(sp)
 860:	02812403          	lw	s0,40(sp)
 864:	03010113          	addi	sp,sp,48
 868:	00008067          	ret

0000086c <IRQHandlerTimer>:
 86c:	ff010113          	addi	sp,sp,-16
 870:	00112623          	sw	ra,12(sp)
 874:	00812423          	sw	s0,8(sp)
 878:	01010413          	addi	s0,sp,16
 87c:	000017b7          	lui	a5,0x1
 880:	fb87a783          	lw	a5,-72(a5) # fb8 <counterMod>
 884:	40f00733          	neg	a4,a5
 888:	000017b7          	lui	a5,0x1
 88c:	fae7ac23          	sw	a4,-72(a5) # fb8 <counterMod>
 890:	05f5e537          	lui	a0,0x5f5e
 894:	10050513          	addi	a0,a0,256 # 5f5e100 <_end_of_memory+0x5f56101>
 898:	00000593          	li	a1,0
 89c:	b55ff0ef          	jal	ra,3f0 <Hal_TimerStart>
 8a0:	00000013          	nop
 8a4:	00c12083          	lw	ra,12(sp)
 8a8:	00812403          	lw	s0,8(sp)
 8ac:	01010113          	addi	sp,sp,16
 8b0:	00008067          	ret

000008b4 <IRQHandlerUart>:
 8b4:	fe010113          	addi	sp,sp,-32
 8b8:	00112e23          	sw	ra,28(sp)
 8bc:	00812c23          	sw	s0,24(sp)
 8c0:	02010413          	addi	s0,sp,32
 8c4:	000017b7          	lui	a5,0x1
 8c8:	fb07a783          	lw	a5,-80(a5) # fb0 <g_Uart>
 8cc:	0087a783          	lw	a5,8(a5)
 8d0:	0807f793          	andi	a5,a5,128
 8d4:	02078a63          	beqz	a5,908 <IRQHandlerUart+0x54>
 8d8:	000017b7          	lui	a5,0x1
 8dc:	fb07a783          	lw	a5,-80(a5) # fb0 <g_Uart>
 8e0:	00078513          	mv	a0,a5
 8e4:	564000ef          	jal	ra,e48 <UartGet>
 8e8:	00050793          	mv	a5,a0
 8ec:	fef407a3          	sb	a5,-17(s0)
 8f0:	000017b7          	lui	a5,0x1
 8f4:	fb07a783          	lw	a5,-80(a5) # fb0 <g_Uart>
 8f8:	fef44703          	lbu	a4,-17(s0)
 8fc:	00070593          	mv	a1,a4
 900:	00078513          	mv	a0,a5
 904:	4fc000ef          	jal	ra,e00 <UartPut>
 908:	000017b7          	lui	a5,0x1
 90c:	fb07a783          	lw	a5,-80(a5) # fb0 <g_Uart>
 910:	0007a423          	sw	zero,8(a5)
 914:	00000013          	nop
 918:	01c12083          	lw	ra,28(sp)
 91c:	01812403          	lw	s0,24(sp)
 920:	02010113          	addi	sp,sp,32
 924:	00008067          	ret

00000928 <main>:
 928:	fe010113          	addi	sp,sp,-32
 92c:	00112e23          	sw	ra,28(sp)
 930:	00812c23          	sw	s0,24(sp)
 934:	02010413          	addi	s0,sp,32
 938:	000017b7          	lui	a5,0x1
 93c:	fb07a703          	lw	a4,-80(a5) # fb0 <g_Uart>
 940:	000017b7          	lui	a5,0x1
 944:	f5078593          	addi	a1,a5,-176 # f50 <UartGetNonBlocking+0xc8>
 948:	00070513          	mv	a0,a4
 94c:	43c000ef          	jal	ra,d88 <UartWrite>
 950:	000017b7          	lui	a5,0x1
 954:	fb07a703          	lw	a4,-80(a5) # fb0 <g_Uart>
 958:	000017b7          	lui	a5,0x1
 95c:	f6c78593          	addi	a1,a5,-148 # f6c <UartGetNonBlocking+0xe4>
 960:	00070513          	mv	a0,a4
 964:	424000ef          	jal	ra,d88 <UartWrite>
 968:	000017b7          	lui	a5,0x1
 96c:	fb07a703          	lw	a4,-80(a5) # fb0 <g_Uart>
 970:	000017b7          	lui	a5,0x1
 974:	f7c78593          	addi	a1,a5,-132 # f7c <UartGetNonBlocking+0xf4>
 978:	00070513          	mv	a0,a4
 97c:	40c000ef          	jal	ra,d88 <UartWrite>
 980:	000017b7          	lui	a5,0x1
 984:	fb07a703          	lw	a4,-80(a5) # fb0 <g_Uart>
 988:	000017b7          	lui	a5,0x1
 98c:	f8478593          	addi	a1,a5,-124 # f84 <UartGetNonBlocking+0xfc>
 990:	00070513          	mv	a0,a4
 994:	3f4000ef          	jal	ra,d88 <UartWrite>
 998:	000017b7          	lui	a5,0x1
 99c:	fb07a703          	lw	a4,-80(a5) # fb0 <g_Uart>
 9a0:	000017b7          	lui	a5,0x1
 9a4:	f9c78593          	addi	a1,a5,-100 # f9c <UartGetNonBlocking+0x114>
 9a8:	00070513          	mv	a0,a4
 9ac:	3dc000ef          	jal	ra,d88 <UartWrite>
 9b0:	000017b7          	lui	a5,0x1
 9b4:	fac7a783          	lw	a5,-84(a5) # fac <g_Pio>
 9b8:	fff00713          	li	a4,-1
 9bc:	00e7a223          	sw	a4,4(a5)
 9c0:	000017b7          	lui	a5,0x1
 9c4:	8b478593          	addi	a1,a5,-1868 # 8b4 <IRQHandlerUart>
 9c8:	00000513          	li	a0,0
 9cc:	841ff0ef          	jal	ra,20c <Hal_SetExtIrqHandler>
 9d0:	00000513          	li	a0,0
 9d4:	8d1ff0ef          	jal	ra,2a4 <Hal_EnableInterrupt>
 9d8:	000017b7          	lui	a5,0x1
 9dc:	fb07a783          	lw	a5,-80(a5) # fb0 <g_Uart>
 9e0:	00c7a703          	lw	a4,12(a5)
 9e4:	000017b7          	lui	a5,0x1
 9e8:	fb07a783          	lw	a5,-80(a5) # fb0 <g_Uart>
 9ec:	08076713          	ori	a4,a4,128
 9f0:	00e7a623          	sw	a4,12(a5)
 9f4:	00b00513          	li	a0,11
 9f8:	fc8ff0ef          	jal	ra,1c0 <Hal_EnableMachineInterrupt>
 9fc:	000017b7          	lui	a5,0x1
 a00:	86c78513          	addi	a0,a5,-1940 # 86c <IRQHandlerTimer>
 a04:	849ff0ef          	jal	ra,24c <Hal_SetTimerIrqHandler>
 a08:	08f0d537          	lui	a0,0x8f0d
 a0c:	18050513          	addi	a0,a0,384 # 8f0d180 <_end_of_memory+0x8f05181>
 a10:	00000593          	li	a1,0
 a14:	9ddff0ef          	jal	ra,3f0 <Hal_TimerStart>
 a18:	fc8ff0ef          	jal	ra,1e0 <Hal_GlobalEnableInterrupts>
 a1c:	fd4ff0ef          	jal	ra,1f0 <Hal_ReadTime32>
 a20:	fea42623          	sw	a0,-20(s0)
 a24:	fccff0ef          	jal	ra,1f0 <Hal_ReadTime32>
 a28:	fea42423          	sw	a0,-24(s0)
 a2c:	fe842703          	lw	a4,-24(s0)
 a30:	fec42783          	lw	a5,-20(s0)
 a34:	40f70733          	sub	a4,a4,a5
 a38:	0017d7b7          	lui	a5,0x17d
 a3c:	78478793          	addi	a5,a5,1924 # 17d784 <_end_of_memory+0x175785>
 a40:	fee7f2e3          	bgeu	a5,a4,a24 <main+0xfc>
 a44:	fe842783          	lw	a5,-24(s0)
 a48:	fef42623          	sw	a5,-20(s0)
 a4c:	000017b7          	lui	a5,0x1
 a50:	fac7a783          	lw	a5,-84(a5) # fac <g_Pio>
 a54:	0007a703          	lw	a4,0(a5)
 a58:	000017b7          	lui	a5,0x1
 a5c:	fb87a783          	lw	a5,-72(a5) # fb8 <counterMod>
 a60:	00078693          	mv	a3,a5
 a64:	000017b7          	lui	a5,0x1
 a68:	fac7a783          	lw	a5,-84(a5) # fac <g_Pio>
 a6c:	00d70733          	add	a4,a4,a3
 a70:	00e7a023          	sw	a4,0(a5)
 a74:	fb1ff06f          	j	a24 <main+0xfc>

00000a78 <UartWriteInt>:
 a78:	fc010113          	addi	sp,sp,-64
 a7c:	02112e23          	sw	ra,60(sp)
 a80:	02812c23          	sw	s0,56(sp)
 a84:	04010413          	addi	s0,sp,64
 a88:	fca42623          	sw	a0,-52(s0)
 a8c:	fcb42423          	sw	a1,-56(s0)
 a90:	00060793          	mv	a5,a2
 a94:	fcf403a3          	sb	a5,-57(s0)
 a98:	fc042e23          	sw	zero,-36(s0)
 a9c:	fe042023          	sw	zero,-32(s0)
 aa0:	fe042223          	sw	zero,-28(s0)
 aa4:	fc842703          	lw	a4,-56(s0)
 aa8:	800007b7          	lui	a5,0x80000
 aac:	06f71263          	bne	a4,a5,b10 <UartWriteInt+0x98>
 ab0:	02d00793          	li	a5,45
 ab4:	fcf40e23          	sb	a5,-36(s0)
 ab8:	03200793          	li	a5,50
 abc:	fcf40ea3          	sb	a5,-35(s0)
 ac0:	03100793          	li	a5,49
 ac4:	fcf40f23          	sb	a5,-34(s0)
 ac8:	03400793          	li	a5,52
 acc:	fcf40fa3          	sb	a5,-33(s0)
 ad0:	03700793          	li	a5,55
 ad4:	fef40023          	sb	a5,-32(s0)
 ad8:	03400793          	li	a5,52
 adc:	fef400a3          	sb	a5,-31(s0)
 ae0:	03800793          	li	a5,56
 ae4:	fef40123          	sb	a5,-30(s0)
 ae8:	03300793          	li	a5,51
 aec:	fef401a3          	sb	a5,-29(s0)
 af0:	03600793          	li	a5,54
 af4:	fef40223          	sb	a5,-28(s0)
 af8:	03400793          	li	a5,52
 afc:	fef402a3          	sb	a5,-27(s0)
 b00:	03800793          	li	a5,56
 b04:	fef40323          	sb	a5,-26(s0)
 b08:	fe0403a3          	sb	zero,-25(s0)
 b0c:	0b80006f          	j	bc4 <UartWriteInt+0x14c>
 b10:	fe0407a3          	sb	zero,-17(s0)
 b14:	fc842783          	lw	a5,-56(s0)
 b18:	0207d663          	bgez	a5,b44 <UartWriteInt+0xcc>
 b1c:	fc842783          	lw	a5,-56(s0)
 b20:	40f007b3          	neg	a5,a5
 b24:	fcf42423          	sw	a5,-56(s0)
 b28:	fef44783          	lbu	a5,-17(s0)
 b2c:	00178713          	addi	a4,a5,1 # 80000001 <_end_of_memory+0x7fff8002>
 b30:	fee407a3          	sb	a4,-17(s0)
 b34:	ff078793          	addi	a5,a5,-16
 b38:	008787b3          	add	a5,a5,s0
 b3c:	02d00713          	li	a4,45
 b40:	fee78623          	sb	a4,-20(a5)
 b44:	fc842703          	lw	a4,-56(s0)
 b48:	00a00793          	li	a5,10
 b4c:	02f747b3          	div	a5,a4,a5
 b50:	fef42423          	sw	a5,-24(s0)
 b54:	0200006f          	j	b74 <UartWriteInt+0xfc>
 b58:	fe842703          	lw	a4,-24(s0)
 b5c:	00a00793          	li	a5,10
 b60:	02f747b3          	div	a5,a4,a5
 b64:	fef42423          	sw	a5,-24(s0)
 b68:	fef44783          	lbu	a5,-17(s0)
 b6c:	00178793          	addi	a5,a5,1
 b70:	fef407a3          	sb	a5,-17(s0)
 b74:	fe842783          	lw	a5,-24(s0)
 b78:	fe0790e3          	bnez	a5,b58 <UartWriteInt+0xe0>
 b7c:	fc842703          	lw	a4,-56(s0)
 b80:	00a00793          	li	a5,10
 b84:	02f767b3          	rem	a5,a4,a5
 b88:	0ff7f713          	zext.b	a4,a5
 b8c:	fef44783          	lbu	a5,-17(s0)
 b90:	fff78693          	addi	a3,a5,-1
 b94:	fed407a3          	sb	a3,-17(s0)
 b98:	03070713          	addi	a4,a4,48
 b9c:	0ff77713          	zext.b	a4,a4
 ba0:	ff078793          	addi	a5,a5,-16
 ba4:	008787b3          	add	a5,a5,s0
 ba8:	fee78623          	sb	a4,-20(a5)
 bac:	fc842703          	lw	a4,-56(s0)
 bb0:	00a00793          	li	a5,10
 bb4:	02f747b3          	div	a5,a4,a5
 bb8:	fcf42423          	sw	a5,-56(s0)
 bbc:	fc842783          	lw	a5,-56(s0)
 bc0:	fa079ee3          	bnez	a5,b7c <UartWriteInt+0x104>
 bc4:	fdc40793          	addi	a5,s0,-36
 bc8:	00078593          	mv	a1,a5
 bcc:	fcc42503          	lw	a0,-52(s0)
 bd0:	1b8000ef          	jal	ra,d88 <UartWrite>
 bd4:	fc744783          	lbu	a5,-57(s0)
 bd8:	00078a63          	beqz	a5,bec <UartWriteInt+0x174>
 bdc:	000017b7          	lui	a5,0x1
 be0:	fa878593          	addi	a1,a5,-88 # fa8 <UartGetNonBlocking+0x120>
 be4:	fcc42503          	lw	a0,-52(s0)
 be8:	1a0000ef          	jal	ra,d88 <UartWrite>
 bec:	00000013          	nop
 bf0:	03c12083          	lw	ra,60(sp)
 bf4:	03812403          	lw	s0,56(sp)
 bf8:	04010113          	addi	sp,sp,64
 bfc:	00008067          	ret

00000c00 <UartWriteHex32>:
 c00:	fe010113          	addi	sp,sp,-32
 c04:	00112e23          	sw	ra,28(sp)
 c08:	00812c23          	sw	s0,24(sp)
 c0c:	02010413          	addi	s0,sp,32
 c10:	fea42623          	sw	a0,-20(s0)
 c14:	feb42423          	sw	a1,-24(s0)
 c18:	00060793          	mv	a5,a2
 c1c:	fef403a3          	sb	a5,-25(s0)
 c20:	fe842783          	lw	a5,-24(s0)
 c24:	0187d793          	srli	a5,a5,0x18
 c28:	0ff7f793          	zext.b	a5,a5
 c2c:	00000613          	li	a2,0
 c30:	00078593          	mv	a1,a5
 c34:	fec42503          	lw	a0,-20(s0)
 c38:	06c000ef          	jal	ra,ca4 <UartWriteHex8>
 c3c:	fe842783          	lw	a5,-24(s0)
 c40:	0107d793          	srli	a5,a5,0x10
 c44:	0ff7f793          	zext.b	a5,a5
 c48:	00000613          	li	a2,0
 c4c:	00078593          	mv	a1,a5
 c50:	fec42503          	lw	a0,-20(s0)
 c54:	050000ef          	jal	ra,ca4 <UartWriteHex8>
 c58:	fe842783          	lw	a5,-24(s0)
 c5c:	0087d793          	srli	a5,a5,0x8
 c60:	0ff7f793          	zext.b	a5,a5
 c64:	00000613          	li	a2,0
 c68:	00078593          	mv	a1,a5
 c6c:	fec42503          	lw	a0,-20(s0)
 c70:	034000ef          	jal	ra,ca4 <UartWriteHex8>
 c74:	fe842783          	lw	a5,-24(s0)
 c78:	0ff7f793          	zext.b	a5,a5
 c7c:	fe744703          	lbu	a4,-25(s0)
 c80:	00070613          	mv	a2,a4
 c84:	00078593          	mv	a1,a5
 c88:	fec42503          	lw	a0,-20(s0)
 c8c:	018000ef          	jal	ra,ca4 <UartWriteHex8>
 c90:	00000013          	nop
 c94:	01c12083          	lw	ra,28(sp)
 c98:	01812403          	lw	s0,24(sp)
 c9c:	02010113          	addi	sp,sp,32
 ca0:	00008067          	ret

00000ca4 <UartWriteHex8>:
 ca4:	fd010113          	addi	sp,sp,-48
 ca8:	02112623          	sw	ra,44(sp)
 cac:	02812423          	sw	s0,40(sp)
 cb0:	03010413          	addi	s0,sp,48
 cb4:	fca42e23          	sw	a0,-36(s0)
 cb8:	00058793          	mv	a5,a1
 cbc:	00060713          	mv	a4,a2
 cc0:	fcf40da3          	sb	a5,-37(s0)
 cc4:	00070793          	mv	a5,a4
 cc8:	fcf40d23          	sb	a5,-38(s0)
 ccc:	fdb44783          	lbu	a5,-37(s0)
 cd0:	00f7f793          	andi	a5,a5,15
 cd4:	fef407a3          	sb	a5,-17(s0)
 cd8:	fdb44783          	lbu	a5,-37(s0)
 cdc:	0047d793          	srli	a5,a5,0x4
 ce0:	fef40723          	sb	a5,-18(s0)
 ce4:	fef44703          	lbu	a4,-17(s0)
 ce8:	00900793          	li	a5,9
 cec:	00e7ea63          	bltu	a5,a4,d00 <UartWriteHex8+0x5c>
 cf0:	fef44783          	lbu	a5,-17(s0)
 cf4:	03078793          	addi	a5,a5,48
 cf8:	0ff7f793          	zext.b	a5,a5
 cfc:	0100006f          	j	d0c <UartWriteHex8+0x68>
 d00:	fef44783          	lbu	a5,-17(s0)
 d04:	03778793          	addi	a5,a5,55
 d08:	0ff7f793          	zext.b	a5,a5
 d0c:	fef407a3          	sb	a5,-17(s0)
 d10:	fee44703          	lbu	a4,-18(s0)
 d14:	00900793          	li	a5,9
 d18:	00e7ea63          	bltu	a5,a4,d2c <Uart.c.2c7b326b+0x1b>
 d1c:	fee44783          	lbu	a5,-18(s0)
 d20:	03078793          	addi	a5,a5,48
 d24:	0ff7f793          	zext.b	a5,a5
 d28:	0100006f          	j	d38 <Uart.c.2c7b326b+0x27>
 d2c:	fee44783          	lbu	a5,-18(s0)
 d30:	03778793          	addi	a5,a5,55
 d34:	0ff7f793          	zext.b	a5,a5
 d38:	fef40723          	sb	a5,-18(s0)
 d3c:	fee44783          	lbu	a5,-18(s0)
 d40:	00078593          	mv	a1,a5
 d44:	fdc42503          	lw	a0,-36(s0)
 d48:	0b8000ef          	jal	ra,e00 <UartPut>
 d4c:	fef44783          	lbu	a5,-17(s0)
 d50:	00078593          	mv	a1,a5
 d54:	fdc42503          	lw	a0,-36(s0)
 d58:	0a8000ef          	jal	ra,e00 <UartPut>
 d5c:	fda44783          	lbu	a5,-38(s0)
 d60:	00078a63          	beqz	a5,d74 <Uart.c.2c7b326b+0x63>
 d64:	000017b7          	lui	a5,0x1
 d68:	fa878593          	addi	a1,a5,-88 # fa8 <UartGetNonBlocking+0x120>
 d6c:	fdc42503          	lw	a0,-36(s0)
 d70:	018000ef          	jal	ra,d88 <UartWrite>
 d74:	00000013          	nop
 d78:	02c12083          	lw	ra,44(sp)
 d7c:	02812403          	lw	s0,40(sp)
 d80:	03010113          	addi	sp,sp,48
 d84:	00008067          	ret

00000d88 <UartWrite>:
 d88:	fe010113          	addi	sp,sp,-32
 d8c:	00112e23          	sw	ra,28(sp)
 d90:	00812c23          	sw	s0,24(sp)
 d94:	02010413          	addi	s0,sp,32
 d98:	fea42623          	sw	a0,-20(s0)
 d9c:	feb42423          	sw	a1,-24(s0)
 da0:	03c0006f          	j	ddc <UartWrite+0x54>
 da4:	fe842783          	lw	a5,-24(s0)
 da8:	0007c703          	lbu	a4,0(a5)
 dac:	00a00793          	li	a5,10
 db0:	00f71863          	bne	a4,a5,dc0 <UartWrite+0x38>
 db4:	00d00593          	li	a1,13
 db8:	fec42503          	lw	a0,-20(s0)
 dbc:	044000ef          	jal	ra,e00 <UartPut>
 dc0:	fe842783          	lw	a5,-24(s0)
 dc4:	00178713          	addi	a4,a5,1
 dc8:	fee42423          	sw	a4,-24(s0)
 dcc:	0007c783          	lbu	a5,0(a5)
 dd0:	00078593          	mv	a1,a5
 dd4:	fec42503          	lw	a0,-20(s0)
 dd8:	028000ef          	jal	ra,e00 <UartPut>
 ddc:	fe842783          	lw	a5,-24(s0)
 de0:	0007c783          	lbu	a5,0(a5)
 de4:	fc0790e3          	bnez	a5,da4 <UartWrite+0x1c>
 de8:	00000013          	nop
 dec:	00000013          	nop
 df0:	01c12083          	lw	ra,28(sp)
 df4:	01812403          	lw	s0,24(sp)
 df8:	02010113          	addi	sp,sp,32
 dfc:	00008067          	ret

00000e00 <UartPut>:
 e00:	fe010113          	addi	sp,sp,-32
 e04:	00812e23          	sw	s0,28(sp)
 e08:	02010413          	addi	s0,sp,32
 e0c:	fea42623          	sw	a0,-20(s0)
 e10:	00058793          	mv	a5,a1
 e14:	fef405a3          	sb	a5,-21(s0)
 e18:	00000013          	nop
 e1c:	fec42783          	lw	a5,-20(s0)
 e20:	0087a783          	lw	a5,8(a5)
 e24:	0407f793          	andi	a5,a5,64
 e28:	fe078ae3          	beqz	a5,e1c <UartPut+0x1c>
 e2c:	feb44703          	lbu	a4,-21(s0)
 e30:	fec42783          	lw	a5,-20(s0)
 e34:	00e7a223          	sw	a4,4(a5)
 e38:	00000013          	nop
 e3c:	01c12403          	lw	s0,28(sp)
 e40:	02010113          	addi	sp,sp,32
 e44:	00008067          	ret

00000e48 <UartGet>:
 e48:	fe010113          	addi	sp,sp,-32
 e4c:	00812e23          	sw	s0,28(sp)
 e50:	02010413          	addi	s0,sp,32
 e54:	fea42623          	sw	a0,-20(s0)
 e58:	00000013          	nop
 e5c:	fec42783          	lw	a5,-20(s0)
 e60:	0087a783          	lw	a5,8(a5)
 e64:	0807f793          	andi	a5,a5,128
 e68:	fe078ae3          	beqz	a5,e5c <UartGet+0x14>
 e6c:	fec42783          	lw	a5,-20(s0)
 e70:	0007a783          	lw	a5,0(a5)
 e74:	0ff7f793          	zext.b	a5,a5
 e78:	00078513          	mv	a0,a5
 e7c:	01c12403          	lw	s0,28(sp)
 e80:	02010113          	addi	sp,sp,32
 e84:	00008067          	ret

00000e88 <UartGetNonBlocking>:
 e88:	fe010113          	addi	sp,sp,-32
 e8c:	00812e23          	sw	s0,28(sp)
 e90:	02010413          	addi	s0,sp,32
 e94:	fea42623          	sw	a0,-20(s0)
 e98:	feb42423          	sw	a1,-24(s0)
 e9c:	fec42783          	lw	a5,-20(s0)
 ea0:	0087a783          	lw	a5,8(a5)
 ea4:	0807f793          	andi	a5,a5,128
 ea8:	02078063          	beqz	a5,ec8 <UartGetNonBlocking+0x40>
 eac:	fec42783          	lw	a5,-20(s0)
 eb0:	0007a783          	lw	a5,0(a5)
 eb4:	0ff7f713          	zext.b	a4,a5
 eb8:	fe842783          	lw	a5,-24(s0)
 ebc:	00e78023          	sb	a4,0(a5)
 ec0:	00100793          	li	a5,1
 ec4:	0080006f          	j	ecc <UartGetNonBlocking+0x44>
 ec8:	00000793          	li	a5,0
 ecc:	00078513          	mv	a0,a5
 ed0:	01c12403          	lw	s0,28(sp)
 ed4:	02010113          	addi	sp,sp,32
 ed8:	00008067          	ret
